; Function Attrs: mustprogress uwtable
define hidden void @_ZN4lean13mk_llnf_fprojEjj(ptr dead_on_unwind noalias writable sret(%"class.lean::expr") align 8 %0, i32 noundef %1, i32 noundef %2) local_unnamed_addr #0 personality ptr @__gxx_personality_v0 {
  %4 = alloca %"class.lean::list_ref.61", align 8
  %5 = alloca %"class.lean::name", align 8
  %6 = alloca %"class.lean::name", align 8
  call void @llvm.lifetime.start.p0(i64 8, ptr nonnull %5) #19
  call void @llvm.lifetime.start.p0(i64 8, ptr nonnull %6) #19
  %7 = load ptr, ptr @_ZN4leanL7g_sprojE, align 8, !tbaa !19
  call void @_ZN4lean4nameC1ERKS0_j(ptr noundef nonnull align 8 dereferenceable(8) %6, ptr noundef nonnull align 8 dereferenceable(8) %7, i32 noundef %1)
  invoke void @_ZN4lean4nameC1ERKS0_j(ptr noundef nonnull align 8 dereferenceable(8) %5, ptr noundef nonnull align 8 dereferenceable(8) %6, i32 noundef %2)
          to label %8 unwind label %50

8:                                                ; preds = %3
  call void @llvm.lifetime.start.p0(i64 8, ptr nonnull %4) #19, !noalias !47
  store ptr inttoptr (i64 1 to ptr), ptr %4, align 8, !tbaa !8, !noalias !47
  invoke void @_ZN4lean8mk_constERKNS_4nameERKNS_8list_refINS_5levelEEE(ptr dead_on_unwind writable sret(%"class.lean::expr") align 8 %0, ptr noundef nonnull align 8 dereferenceable(8) %5, ptr noundef nonnull align 8 dereferenceable(8) %4)
          to label %_ZN4lean11mk_constantERKNS_4nameERKNS_8list_refINS_5levelEEE.exit.i unwind label %.body

_ZN4lean11mk_constantERKNS_4nameERKNS_8list_refINS_5levelEEE.exit.i: ; preds = %8
  %9 = load ptr, ptr %4, align 8, !tbaa !8, !noalias !47
  %10 = ptrtoint ptr %9 to i64
  %11 = and i64 %10, 1
  %.not.i.i.i = icmp eq i64 %11, 0
  br i1 %.not.i.i.i, label %12, label %23

12:                                               ; preds = %_ZN4lean11mk_constantERKNS_4nameERKNS_8list_refINS_5levelEEE.exit.i
  %13 = load i32, ptr %9, align 4, !tbaa !10
  %14 = icmp sgt i32 %13, 1
  br i1 %14, label %15, label %17, !prof !13

15:                                               ; preds = %12
  %16 = add nsw i32 %13, -1
  store i32 %16, ptr %9, align 4, !tbaa !10
  br label %23

17:                                               ; preds = %12
  %.not.i.i.i.i = icmp eq i32 %13, 0
  br i1 %.not.i.i.i.i, label %23, label %18

18:                                               ; preds = %17
  invoke void @lean_dec_ref_cold(ptr noundef nonnull %9)
          to label %23 unwind label %19

19:                                               ; preds = %18
  %20 = landingpad { ptr, i32 }
          catch ptr null
  %21 = extractvalue { ptr, i32 } %20, 0
  call void @__clang_call_terminate(ptr %21) #20
  unreachable

.body:                                            ; preds = %8
  %22 = landingpad { ptr, i32 }
          cleanup
  call void @_ZN4lean10object_refD2Ev(ptr noundef nonnull align 8 dereferenceable(8) %4) #19
  call void @llvm.lifetime.end.p0(i64 8, ptr nonnull %4) #19, !noalias !47
  call void @_ZN4lean10object_refD2Ev(ptr noundef nonnull align 8 dereferenceable(8) %5) #19
  br label %52

23:                                               ; preds = %18, %17, %15, %_ZN4lean11mk_constantERKNS_4nameERKNS_8list_refINS_5levelEEE.exit.i
  call void @llvm.lifetime.end.p0(i64 8, ptr nonnull %4) #19, !noalias !47
  %24 = load ptr, ptr %5, align 8, !tbaa !8
  %25 = ptrtoint ptr %24 to i64
  %26 = and i64 %25, 1
  %.not.i.i = icmp eq i64 %26, 0
  br i1 %.not.i.i, label %27, label %_ZN4lean10object_refD2Ev.exit

27:                                               ; preds = %23
  %28 = load i32, ptr %24, align 4, !tbaa !10
  %29 = icmp sgt i32 %28, 1
  br i1 %29, label %30, label %32, !prof !13

30:                                               ; preds = %27
  %31 = add nsw i32 %28, -1
  store i32 %31, ptr %24, align 4, !tbaa !10
  br label %_ZN4lean10object_refD2Ev.exit

32:                                               ; preds = %27
  %.not.i.i.i5 = icmp eq i32 %28, 0
  br i1 %.not.i.i.i5, label %_ZN4lean10object_refD2Ev.exit, label %33

33:                                               ; preds = %32
  invoke void @lean_dec_ref_cold(ptr noundef nonnull %24)
          to label %_ZN4lean10object_refD2Ev.exit unwind label %34

34:                                               ; preds = %33
  %35 = landingpad { ptr, i32 }
          catch ptr null
  %36 = extractvalue { ptr, i32 } %35, 0
  call void @__clang_call_terminate(ptr %36) #20
  unreachable

_ZN4lean10object_refD2Ev.exit:                    ; preds = %23, %30, %32, %33
  %37 = load ptr, ptr %6, align 8, !tbaa !8
  %38 = ptrtoint ptr %37 to i64
  %39 = and i64 %38, 1
  %.not.i.i6 = icmp eq i64 %39, 0
  br i1 %.not.i.i6, label %40, label %_ZN4lean10object_refD2Ev.exit8

40:                                               ; preds = %_ZN4lean10object_refD2Ev.exit
  %41 = load i32, ptr %37, align 4, !tbaa !10
  %42 = icmp sgt i32 %41, 1
  br i1 %42, label %43, label %45, !prof !13

43:                                               ; preds = %40
  %44 = add nsw i32 %41, -1
  store i32 %44, ptr %37, align 4, !tbaa !10
  br label %_ZN4lean10object_refD2Ev.exit8

45:                                               ; preds = %40
  %.not.i.i.i7 = icmp eq i32 %41, 0
  br i1 %.not.i.i.i7, label %_ZN4lean10object_refD2Ev.exit8, label %46

46:                                               ; preds = %45
  invoke void @lean_dec_ref_cold(ptr noundef nonnull %37)
          to label %_ZN4lean10object_refD2Ev.exit8 unwind label %47

47:                                               ; preds = %46
  %48 = landingpad { ptr, i32 }
          catch ptr null
  %49 = extractvalue { ptr, i32 } %48, 0
  call void @__clang_call_terminate(ptr %49) #20
  unreachable

_ZN4lean10object_refD2Ev.exit8:                   ; preds = %_ZN4lean10object_refD2Ev.exit, %43, %45, %46
  call void @llvm.lifetime.end.p0(i64 8, ptr nonnull %6) #19
  call void @llvm.lifetime.end.p0(i64 8, ptr nonnull %5) #19
  ret void

50:                                               ; preds = %3
  %51 = landingpad { ptr, i32 }
          cleanup
  br label %52

52:                                               ; preds = %.body, %50
  %.pn = phi { ptr, i32 } [ %22, %.body ], [ %51, %50 ]
  call void @_ZN4lean10object_refD2Ev(ptr noundef nonnull align 8 dereferenceable(8) %6) #19
  call void @llvm.lifetime.end.p0(i64 8, ptr nonnull %6) #19
  call void @llvm.lifetime.end.p0(i64 8, ptr nonnull %5) #19
  resume { ptr, i32 } %.pn
}